target datalayout = "e-m:e-p270:32:32-p271:32:32-p272:64:64-i64:64-i128:128-f80:128-n8:16:32:64-S128"
target triple = "x86_64-pc-linux-gnu"

%struct.GenerationContext = type { %struct.MemoryContextData, i32, i32, i32, i32, ptr, ptr, %struct.dlist_head }
%struct.MemoryContextData = type { i32, i8, i8, i64, ptr, ptr, ptr, ptr, ptr, ptr, ptr, ptr }
%struct.dlist_head = type { %struct.dlist_node }
%struct.dlist_node = type { ptr, ptr }
%struct.GenerationBlock = type { %struct.dlist_node, ptr, i64, i32, i32, ptr, ptr }
%struct.dlist_iter = type { ptr, ptr }

; Function Attrs: nounwind uwtable
define dso_local zeroext i1 @GenerationIsEmpty(ptr noundef %0) #0 {
  %2 = alloca i1, align 1
  %3 = alloca ptr, align 8
  %4 = alloca ptr, align 8
  %5 = alloca %struct.dlist_iter, align 8
  %6 = alloca i32, align 4
  %7 = alloca i32, align 4
  %8 = alloca ptr, align 8
  %9 = alloca i32, align 4
  %10 = alloca i32, align 4
  %11 = alloca i32, align 4
  store ptr %0, ptr %3, align 8
  call void @llvm.lifetime.start.p0(i64 8, ptr %4) #12
  %12 = load ptr, ptr %3, align 8
  store ptr %12, ptr %4, align 8
  call void @llvm.lifetime.start.p0(i64 16, ptr %5) #12
  br label %13

13:                                               ; preds = %1
  br label %14

14:                                               ; preds = %13
  br label %15

15:                                               ; preds = %14
  store i32 1, ptr %6, align 4
  br label %16

16:                                               ; preds = %15
  br label %17

17:                                               ; preds = %16
  br label %18

18:                                               ; preds = %17
  store i32 1, ptr %7, align 4
  %19 = load ptr, ptr %4, align 8
  %20 = getelementptr inbounds nuw %struct.GenerationContext, ptr %19, i32 0, i32 7
  %21 = getelementptr inbounds nuw %struct.dlist_head, ptr %20, i32 0, i32 0
  %22 = getelementptr inbounds nuw %struct.dlist_iter, ptr %5, i32 0, i32 1
  store ptr %21, ptr %22, align 8
  %23 = getelementptr inbounds nuw %struct.dlist_iter, ptr %5, i32 0, i32 1
  %24 = load ptr, ptr %23, align 8
  %25 = getelementptr inbounds nuw %struct.dlist_node, ptr %24, i32 0, i32 1
  %26 = load ptr, ptr %25, align 8
  %27 = icmp ne ptr %26, null
  br i1 %27, label %28, label %33

28:                                               ; preds = %18
  %29 = getelementptr inbounds nuw %struct.dlist_iter, ptr %5, i32 0, i32 1
  %30 = load ptr, ptr %29, align 8
  %31 = getelementptr inbounds nuw %struct.dlist_node, ptr %30, i32 0, i32 1
  %32 = load ptr, ptr %31, align 8
  br label %36

33:                                               ; preds = %18
  %34 = getelementptr inbounds nuw %struct.dlist_iter, ptr %5, i32 0, i32 1
  %35 = load ptr, ptr %34, align 8
  br label %36

36:                                               ; preds = %33, %28
  %37 = phi ptr [ %32, %28 ], [ %35, %33 ]
  %38 = getelementptr inbounds nuw %struct.dlist_iter, ptr %5, i32 0, i32 0
  store ptr %37, ptr %38, align 8
  br label %39

39:                                               ; preds = %64, %36
  %40 = getelementptr inbounds nuw %struct.dlist_iter, ptr %5, i32 0, i32 0
  %41 = load ptr, ptr %40, align 8
  %42 = getelementptr inbounds nuw %struct.dlist_iter, ptr %5, i32 0, i32 1
  %43 = load ptr, ptr %42, align 8
  %44 = icmp ne ptr %41, %43
  br i1 %44, label %45, label %70

45:                                               ; preds = %39
  call void @llvm.lifetime.start.p0(i64 8, ptr %8) #12
  br label %46

46:                                               ; preds = %45
  br label %47

47:                                               ; preds = %46
  br label %48

48:                                               ; preds = %47
  store i32 1, ptr %9, align 4
  br label %49

49:                                               ; preds = %48
  br label %50

50:                                               ; preds = %49
  br label %51

51:                                               ; preds = %50
  store i32 1, ptr %10, align 4
  %52 = getelementptr inbounds nuw %struct.dlist_iter, ptr %5, i32 0, i32 0
  %53 = load ptr, ptr %52, align 8
  %54 = getelementptr inbounds i8, ptr %53, i64 0
  store ptr %54, ptr %8, align 8
  %55 = load ptr, ptr %8, align 8
  %56 = getelementptr inbounds nuw %struct.GenerationBlock, ptr %55, i32 0, i32 3
  %57 = load i32, ptr %56, align 8
  %58 = icmp sgt i32 %57, 0
  br i1 %58, label %59, label %60

59:                                               ; preds = %51
  store i1 false, ptr %2, align 1
  store i32 1, ptr %11, align 4
  br label %61

60:                                               ; preds = %51
  store i32 0, ptr %11, align 4
  br label %61

61:                                               ; preds = %60, %59
  call void @llvm.lifetime.end.p0(i64 8, ptr %8) #12
  %62 = load i32, ptr %11, align 4
  switch i32 %62, label %71 [
    i32 0, label %63
  ]

63:                                               ; preds = %61
  br label %64

64:                                               ; preds = %63
  %65 = getelementptr inbounds nuw %struct.dlist_iter, ptr %5, i32 0, i32 0
  %66 = load ptr, ptr %65, align 8
  %67 = getelementptr inbounds nuw %struct.dlist_node, ptr %66, i32 0, i32 1
  %68 = load ptr, ptr %67, align 8
  %69 = getelementptr inbounds nuw %struct.dlist_iter, ptr %5, i32 0, i32 0
  store ptr %68, ptr %69, align 8
  br label %39, !llvm.loop !7

70:                                               ; preds = %39
  store i1 true, ptr %2, align 1
  store i32 1, ptr %11, align 4
  br label %71

71:                                               ; preds = %70, %61
  call void @llvm.lifetime.end.p0(i64 16, ptr %5) #12
  call void @llvm.lifetime.end.p0(i64 8, ptr %4) #12
  %72 = load i1, ptr %2, align 1
  ret i1 %72
}