; Function Attrs: nofree norecurse nosync nounwind memory(read, inaccessiblemem: none) uwtable
define dso_local noundef zeroext i1 @GenerationIsEmpty(ptr noundef readonly captures(address) %0) local_unnamed_addr #9 {
  %2 = getelementptr inbounds nuw i8, ptr %0, i64 112
  %3 = getelementptr inbounds nuw i8, ptr %0, i64 120
  %4 = load ptr, ptr %3, align 8
  %.not = icmp eq ptr %4, null
  %.not111217 = icmp eq ptr %4, %2
  %.not1112 = select i1 %.not, i1 true, i1 %.not111217
  br i1 %.not1112, label %._crit_edge, label %.lr.ph

.lr.ph:                                           ; preds = %1, %8
  %.sroa.0.013 = phi ptr [ %10, %8 ], [ %4, %1 ]
  %5 = getelementptr inbounds nuw i8, ptr %.sroa.0.013, i64 32
  %6 = load i32, ptr %5, align 8
  %7 = icmp slt i32 %6, 1
  br i1 %7, label %8, label %._crit_edge

8:                                                ; preds = %.lr.ph
  %9 = getelementptr inbounds nuw i8, ptr %.sroa.0.013, i64 8
  %10 = load ptr, ptr %9, align 8
  %.not11 = icmp eq ptr %10, %2
  br i1 %.not11, label %._crit_edge, label %.lr.ph, !llvm.loop !9

._crit_edge:                                      ; preds = %.lr.ph, %8, %1
  %.not11.lcssa = phi i1 [ true, %1 ], [ %7, %8 ], [ %7, %.lr.ph ]
  ret i1 %.not11.lcssa
}